target datalayout = "e-m:e-p270:32:32-p271:32:32-p272:64:64-i64:64-i128:128-f80:128-n8:16:32:64-S128"
target triple = "x86_64-pc-linux-gnu"

%struct.FindData = type <{ [2048 x i32], i64, i32, i8, i8, [2 x i8], %class.RarTime, %class.RarTime, %class.RarTime, i32, i8, [3 x i8] }>
%class.RarTime = type { i64 }
%struct.stat = type { i64, i64, i64, i32, i32, i32, i32, i64, i64, i64, i64, %struct.timespec, %struct.timespec, %struct.timespec, [3 x i64] }
%struct.timespec = type { i64, i64 }

; Function Attrs: mustprogress uwtable
define noundef zeroext i1 @_ZN8FindFile8FastFindEPKwP8FindDatab(ptr noundef %0, ptr noundef %1, i1 noundef zeroext %2) #3 align 2 {
  %4 = alloca i1, align 1
  %5 = alloca ptr, align 8
  %6 = alloca ptr, align 8
  %7 = alloca i8, align 1
  %8 = alloca [2048 x i8], align 16
  %9 = alloca %struct.stat, align 8
  %10 = alloca i32, align 4
  store ptr %0, ptr %5, align 8, !tbaa !15
  store ptr %1, ptr %6, align 8, !tbaa !17
  %11 = zext i1 %2 to i8
  store i8 %11, ptr %7, align 1, !tbaa !19
  %12 = load ptr, ptr %6, align 8, !tbaa !17
  %13 = getelementptr inbounds nuw %struct.FindData, ptr %12, i32 0, i32 10
  store i8 0, ptr %13, align 4, !tbaa !20
  call void @llvm.lifetime.start.p0(i64 2048, ptr %8) #11
  %14 = load ptr, ptr %5, align 8, !tbaa !15
  %15 = getelementptr inbounds [2048 x i8], ptr %8, i64 0, i64 0
  %16 = call noundef zeroext i1 @_Z10WideToCharPKwPcm(ptr noundef %14, ptr noundef %15, i64 noundef 2048)
  call void @llvm.lifetime.start.p0(i64 144, ptr %9) #11
  %17 = load i8, ptr %7, align 1, !tbaa !19, !range !25, !noundef !26
  %18 = trunc i8 %17 to i1
  br i1 %18, label %19, label %31

19:                                               ; preds = %3
  %20 = getelementptr inbounds [2048 x i8], ptr %8, i64 0, i64 0
  %21 = call i32 @lstat64(ptr noundef %20, ptr noundef %9) #11
  %22 = icmp ne i32 %21, 0
  br i1 %22, label %23, label %30

23:                                               ; preds = %19
  %24 = call ptr @__errno_location() #12
  %25 = load i32, ptr %24, align 4, !tbaa !27
  %26 = icmp ne i32 %25, 2
  %27 = load ptr, ptr %6, align 8, !tbaa !17
  %28 = getelementptr inbounds nuw %struct.FindData, ptr %27, i32 0, i32 10
  %29 = zext i1 %26 to i8
  store i8 %29, ptr %28, align 4, !tbaa !20
  store i1 false, ptr %4, align 1
  store i32 1, ptr %10, align 4
  br label %78

30:                                               ; preds = %19
  br label %43

31:                                               ; preds = %3
  %32 = getelementptr inbounds [2048 x i8], ptr %8, i64 0, i64 0
  %33 = call i32 @stat64(ptr noundef %32, ptr noundef %9) #11
  %34 = icmp ne i32 %33, 0
  br i1 %34, label %35, label %42

35:                                               ; preds = %31
  %36 = call ptr @__errno_location() #12
  %37 = load i32, ptr %36, align 4, !tbaa !27
  %38 = icmp ne i32 %37, 2
  %39 = load ptr, ptr %6, align 8, !tbaa !17
  %40 = getelementptr inbounds nuw %struct.FindData, ptr %39, i32 0, i32 10
  %41 = zext i1 %38 to i8
  store i8 %41, ptr %40, align 4, !tbaa !20
  store i1 false, ptr %4, align 1
  store i32 1, ptr %10, align 4
  br label %78

42:                                               ; preds = %31
  br label %43

43:                                               ; preds = %42, %30
  %44 = getelementptr inbounds nuw %struct.stat, ptr %9, i32 0, i32 3
  %45 = load i32, ptr %44, align 8, !tbaa !40
  %46 = load ptr, ptr %6, align 8, !tbaa !17
  %47 = getelementptr inbounds nuw %struct.FindData, ptr %46, i32 0, i32 2
  store i32 %45, ptr %47, align 8, !tbaa !33
  %48 = getelementptr inbounds nuw %struct.stat, ptr %9, i32 0, i32 8
  %49 = load i64, ptr %48, align 8, !tbaa !43
  %50 = load ptr, ptr %6, align 8, !tbaa !17
  %51 = getelementptr inbounds nuw %struct.FindData, ptr %50, i32 0, i32 1
  store i64 %49, ptr %51, align 8, !tbaa !44
  %52 = load ptr, ptr %6, align 8, !tbaa !17
  %53 = getelementptr inbounds nuw %struct.FindData, ptr %52, i32 0, i32 6
  %54 = load ptr, ptr %6, align 8, !tbaa !17
  %55 = getelementptr inbounds nuw %struct.FindData, ptr %54, i32 0, i32 7
  %56 = load ptr, ptr %6, align 8, !tbaa !17
  %57 = getelementptr inbounds nuw %struct.FindData, ptr %56, i32 0, i32 8
  call void @_ZN4File13StatToRarTimeER4statP7RarTimeS3_S3_(ptr noundef nonnull align 8 dereferenceable(144) %9, ptr noundef %53, ptr noundef %55, ptr noundef %57)
  %58 = load ptr, ptr %6, align 8, !tbaa !17
  %59 = getelementptr inbounds nuw %struct.FindData, ptr %58, i32 0, i32 0
  %60 = getelementptr inbounds [2048 x i32], ptr %59, i64 0, i64 0
  %61 = load ptr, ptr %5, align 8, !tbaa !15
  call void @_Z8wcsncpyzPwPKwm(ptr noundef %60, ptr noundef %61, i64 noundef 2048)
  %62 = load ptr, ptr %6, align 8, !tbaa !17
  %63 = getelementptr inbounds nuw %struct.FindData, ptr %62, i32 0, i32 9
  store i32 0, ptr %63, align 8, !tbaa !32
  %64 = load ptr, ptr %6, align 8, !tbaa !17
  %65 = getelementptr inbounds nuw %struct.FindData, ptr %64, i32 0, i32 2
  %66 = load i32, ptr %65, align 8, !tbaa !33
  %67 = call noundef zeroext i1 @_Z5IsDirj(i32 noundef %66)
  %68 = load ptr, ptr %6, align 8, !tbaa !17
  %69 = getelementptr inbounds nuw %struct.FindData, ptr %68, i32 0, i32 3
  %70 = zext i1 %67 to i8
  store i8 %70, ptr %69, align 4, !tbaa !34
  %71 = load ptr, ptr %6, align 8, !tbaa !17
  %72 = getelementptr inbounds nuw %struct.FindData, ptr %71, i32 0, i32 2
  %73 = load i32, ptr %72, align 8, !tbaa !33
  %74 = call noundef zeroext i1 @_Z6IsLinkj(i32 noundef %73)
  %75 = load ptr, ptr %6, align 8, !tbaa !17
  %76 = getelementptr inbounds nuw %struct.FindData, ptr %75, i32 0, i32 4
  %77 = zext i1 %74 to i8
  store i8 %77, ptr %76, align 1, !tbaa !35
  store i1 true, ptr %4, align 1
  store i32 1, ptr %10, align 4
  br label %78

78:                                               ; preds = %43, %35, %23
  call void @llvm.lifetime.end.p0(i64 144, ptr %9) #11
  call void @llvm.lifetime.end.p0(i64 2048, ptr %8) #11
  %79 = load i1, ptr %4, align 1
  ret i1 %79
}