; Function Attrs: mustprogress uwtable
define noundef zeroext i1 @_ZN8FindFile8FastFindEPKwP8FindDatab(ptr noundef %0, ptr noundef initializes((8236, 8237)) %1, i1 noundef zeroext %2) local_unnamed_addr #3 align 2 {
  %4 = alloca [2048 x i8], align 16
  %5 = alloca %struct.stat, align 8
  %6 = getelementptr inbounds nuw i8, ptr %1, i64 8236
  store i8 0, ptr %6, align 4, !tbaa !13
  call void @llvm.lifetime.start.p0(i64 2048, ptr nonnull %4) #10
  %7 = call noundef zeroext i1 @_Z10WideToCharPKwPcm(ptr noundef %0, ptr noundef nonnull %4, i64 noundef 2048)
  call void @llvm.lifetime.start.p0(i64 144, ptr nonnull %5) #10
  br i1 %2, label %8, label %15

8:                                                ; preds = %3
  %9 = call i32 @lstat64(ptr noundef nonnull %4, ptr noundef nonnull %5) #10
  %.not17 = icmp eq i32 %9, 0
  br i1 %.not17, label %22, label %10

10:                                               ; preds = %8
  %11 = tail call ptr @__errno_location() #11
  %12 = load i32, ptr %11, align 4, !tbaa !20
  %13 = icmp ne i32 %12, 2
  %14 = zext i1 %13 to i8
  store i8 %14, ptr %6, align 4, !tbaa !13
  br label %41

15:                                               ; preds = %3
  %16 = call i32 @stat64(ptr noundef nonnull %4, ptr noundef nonnull %5) #10
  %.not = icmp eq i32 %16, 0
  br i1 %.not, label %22, label %17

17:                                               ; preds = %15
  %18 = tail call ptr @__errno_location() #11
  %19 = load i32, ptr %18, align 4, !tbaa !20
  %20 = icmp ne i32 %19, 2
  %21 = zext i1 %20 to i8
  store i8 %21, ptr %6, align 4, !tbaa !13
  br label %41

22:                                               ; preds = %15, %8
  %23 = getelementptr inbounds nuw i8, ptr %5, i64 24
  %24 = load i32, ptr %23, align 8, !tbaa !34
  %25 = getelementptr inbounds nuw i8, ptr %1, i64 8200
  store i32 %24, ptr %25, align 8, !tbaa !31
  %26 = getelementptr inbounds nuw i8, ptr %5, i64 48
  %27 = load i64, ptr %26, align 8, !tbaa !37
  %28 = getelementptr inbounds nuw i8, ptr %1, i64 8192
  store i64 %27, ptr %28, align 8, !tbaa !38
  %29 = getelementptr inbounds nuw i8, ptr %1, i64 8208
  %30 = getelementptr inbounds nuw i8, ptr %1, i64 8216
  %31 = getelementptr inbounds nuw i8, ptr %1, i64 8224
  call void @_ZN4File13StatToRarTimeER4statP7RarTimeS3_S3_(ptr noundef nonnull align 8 dereferenceable(144) %5, ptr noundef nonnull %29, ptr noundef nonnull %30, ptr noundef nonnull %31)
  call void @_Z8wcsncpyzPwPKwm(ptr noundef nonnull %1, ptr noundef %0, i64 noundef 2048)
  %32 = getelementptr inbounds nuw i8, ptr %1, i64 8232
  store i32 0, ptr %32, align 8, !tbaa !30
  %33 = load i32, ptr %25, align 8, !tbaa !31
  %34 = call noundef zeroext i1 @_Z5IsDirj(i32 noundef %33)
  %35 = getelementptr inbounds nuw i8, ptr %1, i64 8204
  %36 = zext i1 %34 to i8
  store i8 %36, ptr %35, align 4, !tbaa !32
  %37 = load i32, ptr %25, align 8, !tbaa !31
  %38 = call noundef zeroext i1 @_Z6IsLinkj(i32 noundef %37)
  %39 = getelementptr inbounds nuw i8, ptr %1, i64 8205
  %40 = zext i1 %38 to i8
  store i8 %40, ptr %39, align 1, !tbaa !33
  br label %41

41:                                               ; preds = %22, %17, %10
  %.0 = phi i1 [ false, %10 ], [ true, %22 ], [ false, %17 ]
  call void @llvm.lifetime.end.p0(i64 144, ptr nonnull %5) #10
  call void @llvm.lifetime.end.p0(i64 2048, ptr nonnull %4) #10
  ret i1 %.0
}